target datalayout = "e-m:e-p270:32:32-p271:32:32-p272:64:64-i64:64-i128:128-f80:128-n8:16:32:64-S128"
target triple = "x86_64-pc-linux-gnu"

%class.symbol = type { ptr }
%class.params_ref = type { ptr }
%"class.std::__cxx11::basic_string" = type { %"struct.std::__cxx11::basic_string<char>::_Alloc_hider", i64, %union.anon }
%"struct.std::__cxx11::basic_string<char>::_Alloc_hider" = type { ptr }
%union.anon = type { i64, [8 x i8] }
%class.smt_renaming = type { %class.map, %class.map.0 }
%class.map = type { %class.table2map }
%class.table2map = type { %class.core_hashtable }
%class.core_hashtable = type <{ ptr, i32, i32, i32, [4 x i8] }>
%class.map.0 = type { %class.table2map.1 }
%class.table2map.1 = type { %class.core_hashtable.2 }
%class.core_hashtable.2 = type <{ ptr, i32, i32, i32, [4 x i8] }>
%class.ast_smt_pp = type <{ ptr, %class.ref_vector, %class.ref_vector, %class.symbol, %class.symbol, %class.symbol, %class.symbol, %class.symbol, %"class.std::__cxx11::basic_string", i32, [4 x i8], %"class.ast_smt_pp::is_declared", ptr, i8, [7 x i8] }>
%class.ref_vector = type { %class.ref_vector_core }
%class.ref_vector_core = type { %class.ref_manager_wrapper, %class.ptr_vector }
%class.ref_manager_wrapper = type { ptr }
%class.ptr_vector = type { %class.vector }
%class.vector = type { ptr }
%"class.ast_smt_pp::is_declared" = type { ptr }
%class.ptr_vector.36 = type { %class.vector.37 }
%class.vector.37 = type { ptr }
%struct.pp_params = type { ptr, %class.params_ref }
%class.smt_printer = type { ptr, ptr, ptr, ptr, i32, i32, ptr, %class.ptr_vector, %class.ast_mark, i32, %class.arith_util, %class.bv_util, %class.seq_util, %class.fpa_util, i32, i32, i32, i32, i32, i32, i32, %class.symbol, %class.symbol, i8, i8, ptr }
%class.ast_mark = type { ptr, %class.obj_mark, %class.obj_mark.38 }
%class.obj_mark = type { [8 x i8], %class.bit_vector }
%class.bit_vector = type { i32, i32, ptr }
%class.obj_mark.38 = type { [8 x i8], %class.bit_vector }
%class.arith_util = type { ptr, ptr }
%class.bv_util = type { %class.bv_recognizers, ptr, ptr }
%class.bv_recognizers = type { i32 }
%class.seq_util = type { ptr, ptr, ptr, i32, [4 x i8], %"class.seq_util::str", %"class.seq_util::rex" }
%"class.seq_util::str" = type <{ ptr, ptr, i32, [4 x i8] }>
%"class.seq_util::rex" = type { ptr, ptr, i32, %class.vector.39, %class.ref_vector, %"struct.seq_util::rex::info", %"struct.seq_util::rex::info" }
%class.vector.39 = type { ptr }
%"struct.seq_util::rex::info" = type { i32, i8, i32, i32 }
%class.fpa_util = type { ptr, ptr, i32, %class.arith_util, %class.bv_util }

@_ZN10params_ref18g_empty_params_refE = external global %class.params_ref, align 8
@.str.19 = private unnamed_addr constant [3 x i8] c"pp\00", align 1
@.str.20 = private unnamed_addr constant [8 x i8] c"no_lets\00", align 1
@_ZN12smt_renamingC1Ev = hidden unnamed_addr alias void (ptr), ptr @_ZN12smt_renamingC2Ev

; Function Attrs: mustprogress nounwind uwtable
define linkonce_odr hidden void @_ZN6vectorIP10quantifierLb0EjEC2Ev(ptr noundef nonnull align 8 dereferenceable(8) %0) unnamed_addr #6 comdat align 2 {
  %2 = alloca ptr, align 8
  store ptr %0, ptr %2, align 8, !tbaa !143
  %3 = load ptr, ptr %2, align 8
  %4 = getelementptr inbounds nuw %class.vector.37, ptr %3, i32 0, i32 0
  store ptr null, ptr %4, align 8, !tbaa !286
  ret void
}

; Function Attrs: inlinehint mustprogress nounwind uwtable
define linkonce_odr hidden void @_ZN9pp_paramsD2Ev(ptr noundef nonnull align 8 dereferenceable(16) %0) unnamed_addr #10 comdat align 2 {
  %2 = alloca ptr, align 8
  store ptr %0, ptr %2, align 8, !tbaa !90
  %3 = load ptr, ptr %2, align 8
  %4 = getelementptr inbounds nuw %struct.pp_params, ptr %3, i32 0, i32 1
  call void @_ZN10params_refD1Ev(ptr noundef nonnull align 8 dereferenceable(8) %4) #3
  ret void
}

; Function Attrs: mustprogress uwtable
define linkonce_odr hidden noundef zeroext i1 @_ZNK9pp_params7no_letsEv(ptr noundef nonnull align 8 dereferenceable(16) %0) #4 comdat align 2 {
  %2 = alloca ptr, align 8
  store ptr %0, ptr %2, align 8, !tbaa !90
  %3 = load ptr, ptr %2, align 8
  %4 = getelementptr inbounds nuw %struct.pp_params, ptr %3, i32 0, i32 0
  %5 = load ptr, ptr %4, align 8, !tbaa !94
  %6 = getelementptr inbounds nuw %struct.pp_params, ptr %3, i32 0, i32 1
  %7 = call noundef zeroext i1 @_ZNK10params_ref8get_boolEPKcRKS_b(ptr noundef nonnull align 8 dereferenceable(8) %5, ptr noundef @.str.20, ptr noundef nonnull align 8 dereferenceable(8) %6, i1 noundef zeroext false)
  ret i1 %7
}

; Function Attrs: mustprogress uwtable
define linkonce_odr hidden void @_ZN9pp_paramsC2ERK10params_ref(ptr noundef nonnull align 8 dereferenceable(16) %0, ptr noundef nonnull align 8 dereferenceable(8) %1) unnamed_addr #4 comdat align 2 {
  %3 = alloca ptr, align 8
  %4 = alloca ptr, align 8
  store ptr %0, ptr %3, align 8, !tbaa !90
  store ptr %1, ptr %4, align 8, !tbaa !92
  %5 = load ptr, ptr %3, align 8
  %6 = getelementptr inbounds nuw %struct.pp_params, ptr %5, i32 0, i32 0
  %7 = load ptr, ptr %4, align 8, !tbaa !92
  store ptr %7, ptr %6, align 8, !tbaa !92
  %8 = getelementptr inbounds nuw %struct.pp_params, ptr %5, i32 0, i32 1
  call void @_ZN7gparams10get_moduleEPKc(ptr dead_on_unwind writable sret(%class.params_ref) align 8 %8, ptr noundef @.str.19)
  ret void
}

; Function Attrs: mustprogress nounwind uwtable
define linkonce_odr hidden noundef nonnull align 8 dereferenceable(8) ptr @_ZN10params_ref9get_emptyEv() #6 comdat align 2 {
  ret ptr @_ZN10params_ref18g_empty_params_refE
}

; Function Attrs: mustprogress nounwind uwtable
define linkonce_odr hidden void @_ZN10ptr_vectorI10quantifierEC2Ev(ptr noundef nonnull align 8 dereferenceable(8) %0) unnamed_addr #6 comdat align 2 {
  %2 = alloca ptr, align 8
  store ptr %0, ptr %2, align 8, !tbaa !88
  %3 = load ptr, ptr %2, align 8
  call void @_ZN6vectorIP10quantifierLb0EjEC2Ev(ptr noundef nonnull align 8 dereferenceable(8) %3) #3
  ret void
}

; Function Attrs: mustprogress uwtable
define hidden void @_ZN10ast_smt_pp17display_expr_smt2ERSoP4exprjjPKPKc(ptr noundef nonnull align 8 dereferenceable(137) %0, ptr noundef nonnull align 8 dereferenceable(8) %1, ptr noundef %2, i32 noundef %3, i32 noundef %4, ptr noundef %5) #4 align 2 personality ptr @__gxx_personality_v0 {
  %7 = alloca ptr, align 8
  %8 = alloca ptr, align 8
  %9 = alloca ptr, align 8
  %10 = alloca i32, align 4
  %11 = alloca i32, align 4
  %12 = alloca ptr, align 8
  %13 = alloca %class.ptr_vector.36, align 8
  %14 = alloca %class.smt_renaming, align 8
  %15 = alloca ptr, align 8
  %16 = alloca i32, align 4
  %17 = alloca %struct.pp_params, align 8
  %18 = alloca i8, align 1
  %19 = alloca %class.smt_printer, align 8
  %20 = alloca %class.symbol, align 8
  store ptr %0, ptr %7, align 8, !tbaa !58
  store ptr %1, ptr %8, align 8, !tbaa !25
  store ptr %2, ptr %9, align 8, !tbaa !83
  store i32 %3, ptr %10, align 4, !tbaa !8
  store i32 %4, ptr %11, align 4, !tbaa !8
  store ptr %5, ptr %12, align 8, !tbaa !85
  %21 = load ptr, ptr %7, align 8
  call void @llvm.lifetime.start.p0(i64 8, ptr %13) #3
  call void @_ZN10ptr_vectorI10quantifierEC2Ev(ptr noundef nonnull align 8 dereferenceable(8) %13) #3
  call void @llvm.lifetime.start.p0(i64 48, ptr %14) #3
  invoke void @_ZN12smt_renamingC1Ev(ptr noundef nonnull align 8 dereferenceable(48) %14)
          to label %22 unwind label %46

22:                                               ; preds = %6
  call void @llvm.lifetime.start.p0(i64 16, ptr %17) #3
  %23 = invoke noundef nonnull align 8 dereferenceable(8) ptr @_ZN10params_ref9get_emptyEv()
          to label %24 unwind label %50

24:                                               ; preds = %22
  invoke void @_ZN9pp_paramsC2ERK10params_ref(ptr noundef nonnull align 8 dereferenceable(16) %17, ptr noundef nonnull align 8 dereferenceable(8) %23)
          to label %25 unwind label %50

25:                                               ; preds = %24
  call void @llvm.lifetime.start.p0(i64 1, ptr %18) #3
  %26 = invoke noundef zeroext i1 @_ZNK9pp_params7no_letsEv(ptr noundef nonnull align 8 dereferenceable(16) %17)
          to label %27 unwind label %54

27:                                               ; preds = %25
  %28 = zext i1 %26 to i8
  store i8 %28, ptr %18, align 1, !tbaa !44
  call void @llvm.lifetime.start.p0(i64 424, ptr %19) #3
  %29 = load ptr, ptr %8, align 8, !tbaa !25
  %30 = getelementptr inbounds nuw %class.ast_smt_pp, ptr %21, i32 0, i32 0
  %31 = load ptr, ptr %30, align 8, !tbaa !87
  %32 = getelementptr inbounds nuw %class.ast_smt_pp, ptr %21, i32 0, i32 7
  call void @llvm.memcpy.p0.p0.i64(ptr align 8 %20, ptr align 8 %32, i64 8, i1 false), !tbaa.struct !13
  %33 = load i8, ptr %18, align 1, !tbaa !44, !range !46, !noundef !47
  %34 = trunc i8 %33 to i1
  %35 = getelementptr inbounds nuw %class.ast_smt_pp, ptr %21, i32 0, i32 13
  %36 = load i8, ptr %35, align 8, !tbaa !77, !range !46, !noundef !47
  %37 = trunc i8 %36 to i1
  %38 = load i32, ptr %10, align 4, !tbaa !8
  %39 = load i32, ptr %11, align 4, !tbaa !8
  %40 = load ptr, ptr %12, align 8, !tbaa !85
  %41 = getelementptr inbounds nuw %class.symbol, ptr %20, i32 0, i32 0
  %42 = load ptr, ptr %41, align 8
  invoke void @_ZN11smt_printerC2ERSoR11ast_managerR10ptr_vectorI10quantifierER12smt_renaming6symbolbbjjPKPKc(ptr noundef nonnull align 8 dereferenceable(424) %19, ptr noundef nonnull align 8 dereferenceable(8) %29, ptr noundef nonnull align 8 dereferenceable(976) %31, ptr noundef nonnull align 8 dereferenceable(8) %13, ptr noundef nonnull align 8 dereferenceable(48) %14, ptr %42, i1 noundef zeroext %34, i1 noundef zeroext %37, i32 noundef %38, i32 noundef %39, ptr noundef %40)
          to label %43 unwind label %58

43:                                               ; preds = %27
  %44 = load ptr, ptr %9, align 8, !tbaa !83
  invoke void @_ZN11smt_printerclEP4expr(ptr noundef nonnull align 8 dereferenceable(424) %19, ptr noundef %44)
          to label %45 unwind label %62

45:                                               ; preds = %43
  call void @_ZN11smt_printerD2Ev(ptr noundef nonnull align 8 dereferenceable(424) %19) #3
  call void @llvm.lifetime.end.p0(i64 424, ptr %19) #3
  call void @llvm.lifetime.end.p0(i64 1, ptr %18) #3
  call void @_ZN9pp_paramsD2Ev(ptr noundef nonnull align 8 dereferenceable(16) %17) #3
  call void @llvm.lifetime.end.p0(i64 16, ptr %17) #3
  call void @_ZN12smt_renamingD2Ev(ptr noundef nonnull align 8 dereferenceable(48) %14) #3
  call void @llvm.lifetime.end.p0(i64 48, ptr %14) #3
  call void @_ZN6vectorIP10quantifierLb0EjED2Ev(ptr noundef nonnull align 8 dereferenceable(8) %13) #3
  call void @llvm.lifetime.end.p0(i64 8, ptr %13) #3
  ret void

46:                                               ; preds = %6
  %47 = landingpad { ptr, i32 }
          cleanup
  %48 = extractvalue { ptr, i32 } %47, 0
  store ptr %48, ptr %15, align 8
  %49 = extractvalue { ptr, i32 } %47, 1
  store i32 %49, ptr %16, align 4
  br label %69

50:                                               ; preds = %24, %22
  %51 = landingpad { ptr, i32 }
          cleanup
  %52 = extractvalue { ptr, i32 } %51, 0
  store ptr %52, ptr %15, align 8
  %53 = extractvalue { ptr, i32 } %51, 1
  store i32 %53, ptr %16, align 4
  br label %68

54:                                               ; preds = %25
  %55 = landingpad { ptr, i32 }
          cleanup
  %56 = extractvalue { ptr, i32 } %55, 0
  store ptr %56, ptr %15, align 8
  %57 = extractvalue { ptr, i32 } %55, 1
  store i32 %57, ptr %16, align 4
  br label %67

58:                                               ; preds = %27
  %59 = landingpad { ptr, i32 }
          cleanup
  %60 = extractvalue { ptr, i32 } %59, 0
  store ptr %60, ptr %15, align 8
  %61 = extractvalue { ptr, i32 } %59, 1
  store i32 %61, ptr %16, align 4
  br label %66

62:                                               ; preds = %43
  %63 = landingpad { ptr, i32 }
          cleanup
  %64 = extractvalue { ptr, i32 } %63, 0
  store ptr %64, ptr %15, align 8
  %65 = extractvalue { ptr, i32 } %63, 1
  store i32 %65, ptr %16, align 4
  call void @_ZN11smt_printerD2Ev(ptr noundef nonnull align 8 dereferenceable(424) %19) #3
  br label %66

66:                                               ; preds = %62, %58
  call void @llvm.lifetime.end.p0(i64 424, ptr %19) #3
  br label %67

67:                                               ; preds = %66, %54
  call void @llvm.lifetime.end.p0(i64 1, ptr %18) #3
  call void @_ZN9pp_paramsD2Ev(ptr noundef nonnull align 8 dereferenceable(16) %17) #3
  br label %68

68:                                               ; preds = %67, %50
  call void @llvm.lifetime.end.p0(i64 16, ptr %17) #3
  call void @_ZN12smt_renamingD2Ev(ptr noundef nonnull align 8 dereferenceable(48) %14) #3
  br label %69

69:                                               ; preds = %68, %46
  call void @llvm.lifetime.end.p0(i64 48, ptr %14) #3
  call void @_ZN6vectorIP10quantifierLb0EjED2Ev(ptr noundef nonnull align 8 dereferenceable(8) %13) #3
  call void @llvm.lifetime.end.p0(i64 8, ptr %13) #3
  br label %70

70:                                               ; preds = %69
  %71 = load ptr, ptr %15, align 8
  %72 = load i32, ptr %16, align 4
  %73 = insertvalue { ptr, i32 } poison, ptr %71, 0
  %74 = insertvalue { ptr, i32 } %73, i32 %72, 1
  resume { ptr, i32 } %74
}