; Function Attrs: mustprogress uwtable
define hidden void @_ZN10ast_smt_pp17display_expr_smt2ERSoP4exprjjPKPKc(ptr noundef nonnull readonly align 8 captures(none) dereferenceable(137) %0, ptr noundef nonnull align 8 dereferenceable(8) %1, ptr noundef %2, i32 noundef %3, i32 noundef %4, ptr noundef %5) local_unnamed_addr #3 align 2 personality ptr @__gxx_personality_v0 {
  %7 = alloca %class.ptr_vector.36, align 8
  %8 = alloca %class.smt_renaming, align 8
  %9 = alloca %struct.pp_params, align 8
  %10 = alloca %class.smt_printer, align 8
  call void @llvm.lifetime.start.p0(i64 8, ptr nonnull %7) #24
  store ptr null, ptr %7, align 8, !tbaa !100
  call void @llvm.lifetime.start.p0(i64 48, ptr nonnull %8) #24
  invoke void @_ZN12smt_renamingC2Ev(ptr noundef nonnull align 8 dereferenceable(48) %8)
          to label %11 unwind label %41

11:                                               ; preds = %6
  call void @llvm.lifetime.start.p0(i64 16, ptr nonnull %9) #24
  store ptr @_ZN10params_ref18g_empty_params_refE, ptr %9, align 8, !tbaa !103
  %12 = getelementptr inbounds nuw i8, ptr %9, i64 8
  invoke void @_ZN7gparams10get_moduleEPKc(ptr dead_on_unwind nonnull writable sret(%class.params_ref) align 8 %12, ptr noundef nonnull @.str.19)
          to label %_ZN9pp_paramsC2ERK10params_ref.exit unwind label %43

_ZN9pp_paramsC2ERK10params_ref.exit:              ; preds = %11
  %13 = load ptr, ptr %9, align 8, !tbaa !105
  %14 = invoke noundef zeroext i1 @_ZNK10params_ref8get_boolEPKcRKS_b(ptr noundef nonnull align 8 dereferenceable(8) %13, ptr noundef nonnull @.str.20, ptr noundef nonnull align 8 dereferenceable(8) %12, i1 noundef zeroext false)
          to label %_ZNK9pp_params7no_letsEv.exit unwind label %45

_ZNK9pp_params7no_letsEv.exit:                    ; preds = %_ZN9pp_paramsC2ERK10params_ref.exit
  call void @llvm.lifetime.start.p0(i64 424, ptr nonnull %10) #24
  %15 = load ptr, ptr %0, align 8, !tbaa !109
  %16 = getelementptr inbounds nuw i8, ptr %0, i64 72
  %.sroa.0.0.copyload = load ptr, ptr %16, align 8, !tbaa !6
  %17 = getelementptr inbounds nuw i8, ptr %0, i64 136
  %18 = load i8, ptr %17, align 8, !tbaa !92, !range !110, !noundef !111
  %19 = trunc nuw i8 %18 to i1
  invoke void @_ZN11smt_printerC2ERSoR11ast_managerR10ptr_vectorI10quantifierER12smt_renaming6symbolbbjjPKPKc(ptr noundef nonnull align 8 dereferenceable(424) %10, ptr noundef nonnull align 8 dereferenceable(8) %1, ptr noundef nonnull align 8 dereferenceable(976) %15, ptr noundef nonnull align 8 dereferenceable(8) %7, ptr noundef nonnull align 8 dereferenceable(48) %8, ptr %.sroa.0.0.copyload, i1 noundef zeroext %14, i1 noundef zeroext %19, i32 noundef %3, i32 noundef %4, ptr noundef %5)
          to label %20 unwind label %47

20:                                               ; preds = %_ZNK9pp_params7no_letsEv.exit
  invoke void @_ZN11smt_printerclEP4expr(ptr noundef nonnull align 8 dereferenceable(424) %10, ptr noundef %2)
          to label %21 unwind label %49

21:                                               ; preds = %20
  call void @_ZN11smt_printerD2Ev(ptr noundef nonnull align 8 dereferenceable(424) %10) #24
  call void @llvm.lifetime.end.p0(i64 424, ptr nonnull %10) #24
  call void @_ZN10params_refD1Ev(ptr noundef nonnull align 8 dereferenceable(8) %12) #24
  call void @llvm.lifetime.end.p0(i64 16, ptr nonnull %9) #24
  %22 = getelementptr inbounds nuw i8, ptr %8, i64 24
  %23 = load ptr, ptr %22, align 8, !tbaa !50
  %24 = icmp eq ptr %23, null
  br i1 %24, label %_ZN9table2mapI17default_map_entryI6symbolS1_E16symbol_hash_proc14symbol_eq_procED2Ev.exit.i, label %25

25:                                               ; preds = %21
  invoke void @_ZN6memory10deallocateEPv(ptr noundef nonnull %23)
          to label %_ZN9table2mapI17default_map_entryI6symbolS1_E16symbol_hash_proc14symbol_eq_procED2Ev.exit.i unwind label %26

26:                                               ; preds = %25
  %27 = landingpad { ptr, i32 }
          catch ptr null
  %28 = extractvalue { ptr, i32 } %27, 0
  call void @__clang_call_terminate(ptr %28) #27
  unreachable

_ZN9table2mapI17default_map_entryI6symbolS1_E16symbol_hash_proc14symbol_eq_procED2Ev.exit.i: ; preds = %25, %21
  store ptr null, ptr %22, align 8, !tbaa !50
  %29 = load ptr, ptr %8, align 8, !tbaa !43
  %30 = icmp eq ptr %29, null
  br i1 %30, label %_ZN12smt_renamingD2Ev.exit, label %31

31:                                               ; preds = %_ZN9table2mapI17default_map_entryI6symbolS1_E16symbol_hash_proc14symbol_eq_procED2Ev.exit.i
  invoke void @_ZN6memory10deallocateEPv(ptr noundef nonnull %29)
          to label %_ZN12smt_renamingD2Ev.exit unwind label %32

32:                                               ; preds = %31
  %33 = landingpad { ptr, i32 }
          catch ptr null
  %34 = extractvalue { ptr, i32 } %33, 0
  call void @__clang_call_terminate(ptr %34) #27
  unreachable

_ZN12smt_renamingD2Ev.exit:                       ; preds = %_ZN9table2mapI17default_map_entryI6symbolS1_E16symbol_hash_proc14symbol_eq_procED2Ev.exit.i, %31
  call void @llvm.lifetime.end.p0(i64 48, ptr nonnull %8) #24
  %35 = load ptr, ptr %7, align 8, !tbaa !100
  %.not.i.i = icmp eq ptr %35, null
  br i1 %.not.i.i, label %_ZN6vectorIP10quantifierLb0EjED2Ev.exit, label %36

36:                                               ; preds = %_ZN12smt_renamingD2Ev.exit
  %37 = getelementptr inbounds i8, ptr %35, i64 -8
  invoke void @_ZN6memory10deallocateEPv(ptr noundef nonnull %37)
          to label %_ZN6vectorIP10quantifierLb0EjED2Ev.exit unwind label %38

38:                                               ; preds = %36
  %39 = landingpad { ptr, i32 }
          catch ptr null
  %40 = extractvalue { ptr, i32 } %39, 0
  call void @__clang_call_terminate(ptr %40) #27
  unreachable

_ZN6vectorIP10quantifierLb0EjED2Ev.exit:          ; preds = %_ZN12smt_renamingD2Ev.exit, %36
  call void @llvm.lifetime.end.p0(i64 8, ptr nonnull %7) #24
  ret void

41:                                               ; preds = %6
  %42 = landingpad { ptr, i32 }
          cleanup
  br label %54

43:                                               ; preds = %11
  %44 = landingpad { ptr, i32 }
          cleanup
  br label %53

45:                                               ; preds = %_ZN9pp_paramsC2ERK10params_ref.exit
  %46 = landingpad { ptr, i32 }
          cleanup
  br label %52

47:                                               ; preds = %_ZNK9pp_params7no_letsEv.exit
  %48 = landingpad { ptr, i32 }
          cleanup
  br label %51

49:                                               ; preds = %20
  %50 = landingpad { ptr, i32 }
          cleanup
  call void @_ZN11smt_printerD2Ev(ptr noundef nonnull align 8 dereferenceable(424) %10) #24
  br label %51

51:                                               ; preds = %49, %47
  %.pn = phi { ptr, i32 } [ %50, %49 ], [ %48, %47 ]
  call void @llvm.lifetime.end.p0(i64 424, ptr nonnull %10) #24
  br label %52

52:                                               ; preds = %51, %45
  %.pn.pn = phi { ptr, i32 } [ %.pn, %51 ], [ %46, %45 ]
  call void @_ZN10params_refD1Ev(ptr noundef nonnull align 8 dereferenceable(8) %12) #24
  br label %53

53:                                               ; preds = %52, %43
  %.pn.pn.pn = phi { ptr, i32 } [ %.pn.pn, %52 ], [ %44, %43 ]
  call void @llvm.lifetime.end.p0(i64 16, ptr nonnull %9) #24
  call void @_ZN12smt_renamingD2Ev(ptr noundef nonnull align 8 dereferenceable(48) %8) #24
  br label %54

54:                                               ; preds = %53, %41
  %.pn.pn.pn.pn = phi { ptr, i32 } [ %.pn.pn.pn, %53 ], [ %42, %41 ]
  call void @llvm.lifetime.end.p0(i64 48, ptr nonnull %8) #24
  call void @_ZN6vectorIP10quantifierLb0EjED2Ev(ptr noundef nonnull align 8 dereferenceable(8) %7) #24
  call void @llvm.lifetime.end.p0(i64 8, ptr nonnull %7) #24
  resume { ptr, i32 } %.pn.pn.pn.pn
}